target datalayout = "e-m:e-p270:32:32-p271:32:32-p272:64:64-i64:64-i128:128-f80:128-n8:16:32:64-S128"
target triple = "x86_64-pc-linux-gnu"

%struct._packet_info = type { ptr, ptr, i32, i32, %struct.nstime_t, %struct.nstime_t, %struct.nstime_t, i8, ptr, ptr, ptr, ptr, %struct._address, %struct._address, %struct._address, %struct._address, %struct._address, %struct._address, i32, ptr, i8, [3 x i8], %struct.anon, i32, i32, i32, i32, ptr, i8, ptr, ptr, i16, i16, i32, i32, i16, i32, i32, ptr, ptr, ptr, i8, i8, i16, i16, i16, i32, i16, i16, ptr, ptr, ptr, ptr, ptr, i32, i32 }
%struct.nstime_t = type { i64, i32 }
%struct._address = type { i32, i32, ptr, ptr }
%struct.anon = type { i8, [3 x i8] }
%struct.nas5gs_private_data = type { i8, i32 }

@hf_nas_5gs_msg_auth_code = internal global i32 0, align 4
@hf_nas_5gs_seq_no = internal global i32 0, align 4
@hf_nas_5gs_epd = internal global i32 0, align 4
@hf_nas_5gs_security_header_type = internal global i32 0, align 4
@hf_nas_5gs_spare_half_octet = internal global i32 0, align 4
@ett_nas_5gs = internal global i32 0, align 4
@ett_nas_5gs_sec = internal global i32 0, align 4
@ett_nas_5gs_enc = internal global i32 0, align 4
@.str.1496 = private unnamed_addr constant [8 x i8] c"NAS-5GS\00", align 1
@proto_nas_5gs = internal global i32 0, align 4
@g_nas_5gs_null_decipher = internal global i8 0, align 1
@.str.1537 = private unnamed_addr constant [2 x i8] c"/\00", align 1
@.str.1651 = private unnamed_addr constant [15 x i8] c"Encrypted data\00", align 1
@.str.2433 = private unnamed_addr constant [35 x i8] c"Security protected NAS 5GS message\00", align 1

; Function Attrs: null_pointer_is_valid sspstrong uwtable
define internal ptr @nas5gs_get_private_data(ptr noundef %0) #0 {
  %2 = alloca ptr, align 8
  %3 = alloca ptr, align 8
  store ptr %0, ptr %2, align 8
  call void @llvm.lifetime.start.p0(i64 8, ptr %3) #11
  %4 = load ptr, ptr %2, align 8
  %5 = getelementptr inbounds nuw %struct._packet_info, ptr %4, i32 0, i32 51
  %6 = load ptr, ptr %5, align 8
  %7 = load ptr, ptr %2, align 8
  %8 = load i32, ptr @proto_nas_5gs, align 4
  %9 = load ptr, ptr %2, align 8
  %10 = getelementptr inbounds nuw %struct._packet_info, ptr %9, i32 0, i32 41
  %11 = load i8, ptr %10, align 8
  %12 = zext i8 %11 to i32
  %13 = call ptr @p_get_proto_data(ptr noundef %6, ptr noundef %7, i32 noundef %8, i32 noundef %12)
  store ptr %13, ptr %3, align 8
  %14 = load ptr, ptr %3, align 8
  %15 = icmp ne ptr %14, null
  br i1 %15, label %31, label %16

16:                                               ; preds = %1
  %17 = load ptr, ptr %2, align 8
  %18 = getelementptr inbounds nuw %struct._packet_info, ptr %17, i32 0, i32 51
  %19 = load ptr, ptr %18, align 8
  %20 = call noalias ptr @wmem_alloc0(ptr noundef %19, i64 noundef 8) #12
  store ptr %20, ptr %3, align 8
  %21 = load ptr, ptr %2, align 8
  %22 = getelementptr inbounds nuw %struct._packet_info, ptr %21, i32 0, i32 51
  %23 = load ptr, ptr %22, align 8
  %24 = load ptr, ptr %2, align 8
  %25 = load i32, ptr @proto_nas_5gs, align 4
  %26 = load ptr, ptr %2, align 8
  %27 = getelementptr inbounds nuw %struct._packet_info, ptr %26, i32 0, i32 41
  %28 = load i8, ptr %27, align 8
  %29 = zext i8 %28 to i32
  %30 = load ptr, ptr %3, align 8
  call void @p_add_proto_data(ptr noundef %23, ptr noundef %24, i32 noundef %25, i32 noundef %29, ptr noundef %30)
  br label %31

31:                                               ; preds = %16, %1
  %32 = load ptr, ptr %3, align 8
  call void @llvm.lifetime.end.p0(i64 8, ptr %3) #11
  ret ptr %32
}

; Function Attrs: null_pointer_is_valid sspstrong uwtable
define internal i32 @dissect_nas_5gs(ptr noundef %0, ptr noundef %1, ptr noundef %2, ptr noundef %3) #0 {
  %5 = alloca i32, align 4
  %6 = alloca ptr, align 8
  %7 = alloca ptr, align 8
  %8 = alloca ptr, align 8
  %9 = alloca ptr, align 8
  %10 = alloca ptr, align 8
  %11 = alloca ptr, align 8
  %12 = alloca ptr, align 8
  %13 = alloca i32, align 4
  %14 = alloca i8, align 1
  %15 = alloca i8, align 1
  %16 = alloca ptr, align 8
  %17 = alloca i32, align 4
  store ptr %0, ptr %6, align 8
  store ptr %1, ptr %7, align 8
  store ptr %2, ptr %8, align 8
  store ptr %3, ptr %9, align 8
  call void @llvm.lifetime.start.p0(i64 8, ptr %10) #11
  call void @llvm.lifetime.start.p0(i64 8, ptr %11) #11
  call void @llvm.lifetime.start.p0(i64 8, ptr %12) #11
  call void @llvm.lifetime.start.p0(i64 4, ptr %13) #11
  store i32 0, ptr %13, align 4
  call void @llvm.lifetime.start.p0(i64 1, ptr %14) #11
  call void @llvm.lifetime.start.p0(i64 1, ptr %15) #11
  call void @llvm.lifetime.start.p0(i64 8, ptr %16) #11
  %18 = load ptr, ptr %7, align 8
  %19 = call ptr @nas5gs_get_private_data(ptr noundef %18)
  store ptr %19, ptr %16, align 8
  %20 = load ptr, ptr %7, align 8
  %21 = getelementptr inbounds nuw %struct._packet_info, ptr %20, i32 0, i32 1
  %22 = load ptr, ptr %21, align 8
  call void @col_append_sep_str(ptr noundef %22, i32 noundef 35, ptr noundef @.str.1537, ptr noundef @.str.1496)
  %23 = load ptr, ptr %8, align 8
  %24 = load i32, ptr @proto_nas_5gs, align 4
  %25 = load ptr, ptr %6, align 8
  %26 = call ptr @proto_tree_add_item(ptr noundef %23, i32 noundef %24, ptr noundef %25, i32 noundef 0, i32 noundef -1, i32 noundef 0)
  store ptr %26, ptr %10, align 8
  %27 = load ptr, ptr %10, align 8
  %28 = load i32, ptr @ett_nas_5gs, align 4
  %29 = call ptr @proto_item_add_subtree(ptr noundef %27, i32 noundef %28)
  store ptr %29, ptr %11, align 8
  %30 = load ptr, ptr %6, align 8
  %31 = load i32, ptr %13, align 4
  %32 = call zeroext i8 @tvb_get_uint8(ptr noundef %30, i32 noundef %31)
  store i8 %32, ptr %15, align 1
  %33 = load i8, ptr %15, align 1
  %34 = zext i8 %33 to i32
  %35 = icmp eq i32 %34, 46
  br i1 %35, label %36, label %43

36:                                               ; preds = %4
  %37 = load ptr, ptr %6, align 8
  %38 = load ptr, ptr %7, align 8
  %39 = load ptr, ptr %11, align 8
  %40 = load i32, ptr %13, align 4
  %41 = load ptr, ptr %9, align 8
  %42 = call i32 @dissect_nas_5gs_common(ptr noundef %37, ptr noundef %38, ptr noundef %39, i32 noundef %40, ptr noundef %41)
  store i32 %42, ptr %5, align 4
  store i32 1, ptr %17, align 4
  br label %126

43:                                               ; preds = %4
  %44 = load ptr, ptr %6, align 8
  %45 = load i32, ptr %13, align 4
  %46 = add i32 %45, 1
  %47 = call zeroext i8 @tvb_get_uint8(ptr noundef %44, i32 noundef %46)
  store i8 %47, ptr %14, align 1
  %48 = load i8, ptr %14, align 1
  %49 = load ptr, ptr %16, align 8
  %50 = getelementptr inbounds nuw %struct.nas5gs_private_data, ptr %49, i32 0, i32 0
  store i8 %48, ptr %50, align 4
  %51 = load i8, ptr %14, align 1
  %52 = zext i8 %51 to i32
  %53 = icmp eq i32 %52, 0
  br i1 %53, label %54, label %61

54:                                               ; preds = %43
  %55 = load ptr, ptr %6, align 8
  %56 = load ptr, ptr %7, align 8
  %57 = load ptr, ptr %11, align 8
  %58 = load i32, ptr %13, align 4
  %59 = load ptr, ptr %9, align 8
  %60 = call i32 @dissect_nas_5gs_common(ptr noundef %55, ptr noundef %56, ptr noundef %57, i32 noundef %58, ptr noundef %59)
  store i32 %60, ptr %5, align 4
  store i32 1, ptr %17, align 4
  br label %126

61:                                               ; preds = %43
  %62 = load ptr, ptr %11, align 8
  %63 = load ptr, ptr %6, align 8
  %64 = load i32, ptr %13, align 4
  %65 = load i32, ptr @ett_nas_5gs_sec, align 4
  %66 = call ptr @proto_tree_add_subtree(ptr noundef %62, ptr noundef %63, i32 noundef %64, i32 noundef 7, i32 noundef %65, ptr noundef null, ptr noundef @.str.2433)
  store ptr %66, ptr %12, align 8
  %67 = load ptr, ptr %12, align 8
  %68 = load i32, ptr @hf_nas_5gs_epd, align 4
  %69 = load ptr, ptr %6, align 8
  %70 = load i32, ptr %13, align 4
  %71 = call ptr @proto_tree_add_item(ptr noundef %67, i32 noundef %68, ptr noundef %69, i32 noundef %70, i32 noundef 1, i32 noundef 0)
  %72 = load i32, ptr %13, align 4
  %73 = add i32 %72, 1
  store i32 %73, ptr %13, align 4
  %74 = load ptr, ptr %12, align 8
  %75 = load i32, ptr @hf_nas_5gs_spare_half_octet, align 4
  %76 = load ptr, ptr %6, align 8
  %77 = load i32, ptr %13, align 4
  %78 = call ptr @proto_tree_add_item(ptr noundef %74, i32 noundef %75, ptr noundef %76, i32 noundef %77, i32 noundef 1, i32 noundef 0)
  %79 = load ptr, ptr %12, align 8
  %80 = load i32, ptr @hf_nas_5gs_security_header_type, align 4
  %81 = load ptr, ptr %6, align 8
  %82 = load i32, ptr %13, align 4
  %83 = call ptr @proto_tree_add_item(ptr noundef %79, i32 noundef %80, ptr noundef %81, i32 noundef %82, i32 noundef 1, i32 noundef 0)
  %84 = load i32, ptr %13, align 4
  %85 = add i32 %84, 1
  store i32 %85, ptr %13, align 4
  %86 = load ptr, ptr %12, align 8
  %87 = load i32, ptr @hf_nas_5gs_msg_auth_code, align 4
  %88 = load ptr, ptr %6, align 8
  %89 = load i32, ptr %13, align 4
  %90 = call ptr @proto_tree_add_item(ptr noundef %86, i32 noundef %87, ptr noundef %88, i32 noundef %89, i32 noundef 4, i32 noundef 0)
  %91 = load i32, ptr %13, align 4
  %92 = add i32 %91, 4
  store i32 %92, ptr %13, align 4
  %93 = load ptr, ptr %12, align 8
  %94 = load i32, ptr @hf_nas_5gs_seq_no, align 4
  %95 = load ptr, ptr %6, align 8
  %96 = load i32, ptr %13, align 4
  %97 = call ptr @proto_tree_add_item(ptr noundef %93, i32 noundef %94, ptr noundef %95, i32 noundef %96, i32 noundef 1, i32 noundef 0)
  %98 = load i32, ptr %13, align 4
  %99 = add i32 %98, 1
  store i32 %99, ptr %13, align 4
  %100 = load i8, ptr %14, align 1
  %101 = zext i8 %100 to i32
  %102 = icmp ne i32 %101, 2
  br i1 %102, label %103, label %107

103:                                              ; preds = %61
  %104 = load i8, ptr %14, align 1
  %105 = zext i8 %104 to i32
  %106 = icmp ne i32 %105, 4
  br i1 %106, label %110, label %107

107:                                              ; preds = %103, %61
  %108 = load i8, ptr @g_nas_5gs_null_decipher, align 1, !range !20, !noundef !21
  %109 = trunc i8 %108 to i1
  br i1 %109, label %110, label %117

110:                                              ; preds = %107, %103
  %111 = load ptr, ptr %6, align 8
  %112 = load ptr, ptr %7, align 8
  %113 = load ptr, ptr %11, align 8
  %114 = load i32, ptr %13, align 4
  %115 = load ptr, ptr %9, align 8
  %116 = call i32 @dissect_nas_5gs_common(ptr noundef %111, ptr noundef %112, ptr noundef %113, i32 noundef %114, ptr noundef %115)
  store i32 %116, ptr %5, align 4
  store i32 1, ptr %17, align 4
  br label %126

117:                                              ; preds = %107
  %118 = load ptr, ptr %11, align 8
  %119 = load ptr, ptr %6, align 8
  %120 = load i32, ptr %13, align 4
  %121 = load i32, ptr @ett_nas_5gs_enc, align 4
  %122 = call ptr @proto_tree_add_subtree(ptr noundef %118, ptr noundef %119, i32 noundef %120, i32 noundef -1, i32 noundef %121, ptr noundef null, ptr noundef @.str.1651)
  br label %123

123:                                              ; preds = %117
  %124 = load ptr, ptr %6, align 8
  %125 = call i32 @tvb_reported_length(ptr noundef %124)
  store i32 %125, ptr %5, align 4
  store i32 1, ptr %17, align 4
  br label %126

126:                                              ; preds = %123, %110, %54, %36
  call void @llvm.lifetime.end.p0(i64 8, ptr %16) #11
  call void @llvm.lifetime.end.p0(i64 1, ptr %15) #11
  call void @llvm.lifetime.end.p0(i64 1, ptr %14) #11
  call void @llvm.lifetime.end.p0(i64 4, ptr %13) #11
  call void @llvm.lifetime.end.p0(i64 8, ptr %12) #11
  call void @llvm.lifetime.end.p0(i64 8, ptr %11) #11
  call void @llvm.lifetime.end.p0(i64 8, ptr %10) #11
  %127 = load i32, ptr %5, align 4
  ret i32 %127
}