; Function Attrs: null_pointer_is_valid sspstrong uwtable
define internal i32 @dissect_nas_5gs(ptr noundef %0, ptr noundef %1, ptr noundef %2, ptr noundef %3) #0 {
  %5 = getelementptr inbounds nuw i8, ptr %1, i64 408
  %6 = load ptr, ptr %5, align 8
  %7 = load i32, ptr @proto_nas_5gs, align 4
  %8 = getelementptr inbounds nuw i8, ptr %1, i64 376
  %9 = load i8, ptr %8, align 8
  %10 = zext i8 %9 to i32
  %11 = tail call ptr @p_get_proto_data(ptr noundef %6, ptr noundef %1, i32 noundef %7, i32 noundef %10)
  %.not.i = icmp eq ptr %11, null
  br i1 %.not.i, label %12, label %nas5gs_get_private_data.exit

12:                                               ; preds = %4
  %13 = load ptr, ptr %5, align 8
  %14 = tail call noalias dereferenceable_or_null(8) ptr @wmem_alloc0(ptr noundef %13, i64 noundef 8) #13
  %15 = load ptr, ptr %5, align 8
  %16 = load i32, ptr @proto_nas_5gs, align 4
  %17 = load i8, ptr %8, align 8
  %18 = zext i8 %17 to i32
  tail call void @p_add_proto_data(ptr noundef %15, ptr noundef %1, i32 noundef %16, i32 noundef %18, ptr noundef %14)
  br label %nas5gs_get_private_data.exit

nas5gs_get_private_data.exit:                     ; preds = %4, %12
  %.0.i = phi ptr [ %11, %4 ], [ %14, %12 ]
  %19 = getelementptr inbounds nuw i8, ptr %1, i64 8
  %20 = load ptr, ptr %19, align 8
  tail call void @col_append_sep_str(ptr noundef %20, i32 noundef 35, ptr noundef nonnull @.str.1537, ptr noundef nonnull @.str.1496)
  %21 = load i32, ptr @proto_nas_5gs, align 4
  %22 = tail call ptr @proto_tree_add_item(ptr noundef %2, i32 noundef %21, ptr noundef %0, i32 noundef 0, i32 noundef -1, i32 noundef 0)
  %23 = load i32, ptr @ett_nas_5gs, align 4
  %24 = tail call ptr @proto_item_add_subtree(ptr noundef %22, i32 noundef %23)
  %25 = tail call zeroext i8 @tvb_get_uint8(ptr noundef %0, i32 noundef 0)
  %26 = icmp eq i8 %25, 46
  br i1 %26, label %27, label %29

27:                                               ; preds = %nas5gs_get_private_data.exit
  %28 = tail call fastcc i32 @dissect_nas_5gs_common(ptr noundef %0, ptr noundef %1, ptr noundef %24, i32 noundef 0, ptr noundef %3)
  br label %56

29:                                               ; preds = %nas5gs_get_private_data.exit
  %30 = tail call zeroext i8 @tvb_get_uint8(ptr noundef %0, i32 noundef 1)
  store i8 %30, ptr %.0.i, align 4
  %31 = icmp eq i8 %30, 0
  br i1 %31, label %32, label %34

32:                                               ; preds = %29
  %33 = tail call fastcc i32 @dissect_nas_5gs_common(ptr noundef %0, ptr noundef %1, ptr noundef %24, i32 noundef 0, ptr noundef %3)
  br label %56

34:                                               ; preds = %29
  %35 = load i32, ptr @ett_nas_5gs_sec, align 4
  %36 = tail call ptr @proto_tree_add_subtree(ptr noundef %24, ptr noundef %0, i32 noundef 0, i32 noundef 7, i32 noundef %35, ptr noundef null, ptr noundef nonnull @.str.2433)
  %37 = load i32, ptr @hf_nas_5gs_epd, align 4
  %38 = tail call ptr @proto_tree_add_item(ptr noundef %36, i32 noundef %37, ptr noundef %0, i32 noundef 0, i32 noundef 1, i32 noundef 0)
  %39 = load i32, ptr @hf_nas_5gs_spare_half_octet, align 4
  %40 = tail call ptr @proto_tree_add_item(ptr noundef %36, i32 noundef %39, ptr noundef %0, i32 noundef 1, i32 noundef 1, i32 noundef 0)
  %41 = load i32, ptr @hf_nas_5gs_security_header_type, align 4
  %42 = tail call ptr @proto_tree_add_item(ptr noundef %36, i32 noundef %41, ptr noundef %0, i32 noundef 1, i32 noundef 1, i32 noundef 0)
  %43 = load i32, ptr @hf_nas_5gs_msg_auth_code, align 4
  %44 = tail call ptr @proto_tree_add_item(ptr noundef %36, i32 noundef %43, ptr noundef %0, i32 noundef 2, i32 noundef 4, i32 noundef 0)
  %45 = load i32, ptr @hf_nas_5gs_seq_no, align 4
  %46 = tail call ptr @proto_tree_add_item(ptr noundef %36, i32 noundef %45, ptr noundef %0, i32 noundef 6, i32 noundef 1, i32 noundef 0)
  switch i8 %30, label %50 [
    i8 4, label %47
    i8 2, label %47
  ]

47:                                               ; preds = %34, %34
  %48 = load i8, ptr @g_nas_5gs_null_decipher, align 1, !range !20, !noundef !21
  %49 = trunc nuw i8 %48 to i1
  br i1 %49, label %50, label %52

50:                                               ; preds = %34, %47
  %51 = tail call fastcc i32 @dissect_nas_5gs_common(ptr noundef %0, ptr noundef %1, ptr noundef %24, i32 noundef 7, ptr noundef %3)
  br label %56

52:                                               ; preds = %47
  %53 = load i32, ptr @ett_nas_5gs_enc, align 4
  %54 = tail call ptr @proto_tree_add_subtree(ptr noundef %24, ptr noundef %0, i32 noundef 7, i32 noundef -1, i32 noundef %53, ptr noundef null, ptr noundef nonnull @.str.1651)
  %55 = tail call i32 @tvb_reported_length(ptr noundef %0)
  br label %56

56:                                               ; preds = %52, %50, %32, %27
  %.0 = phi i32 [ %28, %27 ], [ %33, %32 ], [ %51, %50 ], [ %55, %52 ]
  ret i32 %.0
}